(dp0
S'sarah'
p1
ccopy_reg
_reconstructor
p2
(c__main__
AthleteList
p3
c__builtin__
list
p4
(lp5
S'3:30'
p6
aS'4:55'
p7
aS'2:33'
p8
aS'4:21'
p9
aS'3:12'
p10
aS'1.20'
p11
aS'7-35'
p12
atp13
Rp14
(dp15
S'dob'
p16
S'20010201'
p17
sS'name'
p18
g1
sbsS'james'
p19
g2
(g3
g4
(lp20
S'2:30'
p21
aS'4:55'
p22
aS'6:33'
p23
aS'8:21'
p24
aS'3:11'
p25
aS'1.23'
p26
aS'7-35'
p27
atp28
Rp29
(dp30
g16
S'20000101'
p31
sg18
g19
sbsS'lily'
p32
g2
(g3
g4
(lp33
S'1:10'
p34
aS'2:55'
p35
aS'2:33'
p36
aS'3:21'
p37
aS'4:12'
p38
aS'2.20'
p39
aS'1-35'
p40
atp41
Rp42
(dp43
g16
S'20000513'
p44
sg18
g32
sbsS'kate'
p45
g2
(g3
g4
(lp46
S'2:30'
p47
aS'3:55'
p48
aS'1:33'
p49
aS'3:21'
p50
aS'5:12'
p51
aS'1.20'
p52
aS'1-35'
p53
atp54
Rp55
(dp56
g16
S'20010622'
p57
sg18
g45
sbs.